target datalayout = "e-m:e-p270:32:32-p271:32:32-p272:64:64-i64:64-i128:128-f80:128-n8:16:32:64-S128"
target triple = "x86_64-pc-linux-gnu"

%"class.llvm::TargetRegisterClass" = type { ptr, ptr, ptr, %"struct.llvm::LaneBitmask", i8, i8, i8, i8, i8, ptr, ptr }
%"struct.llvm::LaneBitmask" = type { i64 }
%"class.llvm::Register" = type { i32 }
%"class.llvm::MVT" = type { i16 }

@_ZN4llvm7AArch6413GPR64RegClassE = external global %"class.llvm::TargetRegisterClass", align 8
@_ZN4llvm7AArch6413GPR32RegClassE = external global %"class.llvm::TargetRegisterClass", align 8

; Function Attrs: mustprogress nounwind uwtable
define linkonce_odr hidden noundef i32 @_ZNK4llvm8RegistercvjEv(ptr noundef nonnull align 4 dereferenceable(4) %0) #0 comdat align 2 {
  %2 = alloca ptr, align 8
  store ptr %0, ptr %2, align 8
  %3 = load ptr, ptr %2, align 8
  %4 = getelementptr inbounds nuw %"class.llvm::Register", ptr %3, i32 0, i32 0
  %5 = load i32, ptr %4, align 4
  ret i32 %5
}

; Function Attrs: mustprogress nounwind uwtable
define internal noundef i32 @_ZN12_GLOBAL__N_115AArch64FastISel28fastEmit_ISD_UDIV_MVT_i64_rrEN4llvm3MVTEjj(ptr noundef nonnull align 8 dereferenceable(192) %0, i16 %1, i32 noundef %2, i32 noundef %3) #0 align 2 {
  %5 = alloca i32, align 4
  %6 = alloca %"class.llvm::MVT", align 2
  %7 = alloca ptr, align 8
  %8 = alloca i32, align 4
  %9 = alloca i32, align 4
  %10 = alloca %"class.llvm::Register", align 4
  %11 = getelementptr inbounds nuw %"class.llvm::MVT", ptr %6, i32 0, i32 0
  store i16 %1, ptr %11, align 2
  store ptr %0, ptr %7, align 8
  store i32 %2, ptr %8, align 4
  store i32 %3, ptr %9, align 4
  %12 = load ptr, ptr %7, align 8
  %13 = getelementptr inbounds nuw %"class.llvm::MVT", ptr %6, i32 0, i32 0
  %14 = load i16, ptr %13, align 2
  %15 = zext i16 %14 to i32
  %16 = icmp ne i32 %15, 8
  br i1 %16, label %17, label %18

17:                                               ; preds = %4
  store i32 0, ptr %5, align 4
  br label %24

18:                                               ; preds = %4
  %19 = load i32, ptr %8, align 4
  %20 = load i32, ptr %9, align 4
  %21 = call i32 @_ZN4llvm8FastISel15fastEmitInst_rrEjPKNS_19TargetRegisterClassEjj(ptr noundef nonnull align 8 dereferenceable(176) %12, i32 noundef 7202, ptr noundef @_ZN4llvm7AArch6413GPR64RegClassE, i32 noundef %19, i32 noundef %20)
  %22 = getelementptr inbounds nuw %"class.llvm::Register", ptr %10, i32 0, i32 0
  store i32 %21, ptr %22, align 4
  %23 = call noundef i32 @_ZNK4llvm8RegistercvjEv(ptr noundef nonnull align 4 dereferenceable(4) %10)
  store i32 %23, ptr %5, align 4
  br label %24

24:                                               ; preds = %18, %17
  %25 = load i32, ptr %5, align 4
  ret i32 %25
}

; Function Attrs: mustprogress nounwind uwtable
define internal noundef i32 @_ZN12_GLOBAL__N_115AArch64FastISel28fastEmit_ISD_UDIV_MVT_i32_rrEN4llvm3MVTEjj(ptr noundef nonnull align 8 dereferenceable(192) %0, i16 %1, i32 noundef %2, i32 noundef %3) #0 align 2 {
  %5 = alloca i32, align 4
  %6 = alloca %"class.llvm::MVT", align 2
  %7 = alloca ptr, align 8
  %8 = alloca i32, align 4
  %9 = alloca i32, align 4
  %10 = alloca %"class.llvm::Register", align 4
  %11 = getelementptr inbounds nuw %"class.llvm::MVT", ptr %6, i32 0, i32 0
  store i16 %1, ptr %11, align 2
  store ptr %0, ptr %7, align 8
  store i32 %2, ptr %8, align 4
  store i32 %3, ptr %9, align 4
  %12 = load ptr, ptr %7, align 8
  %13 = getelementptr inbounds nuw %"class.llvm::MVT", ptr %6, i32 0, i32 0
  %14 = load i16, ptr %13, align 2
  %15 = zext i16 %14 to i32
  %16 = icmp ne i32 %15, 7
  br i1 %16, label %17, label %18

17:                                               ; preds = %4
  store i32 0, ptr %5, align 4
  br label %24

18:                                               ; preds = %4
  %19 = load i32, ptr %8, align 4
  %20 = load i32, ptr %9, align 4
  %21 = call i32 @_ZN4llvm8FastISel15fastEmitInst_rrEjPKNS_19TargetRegisterClassEjj(ptr noundef nonnull align 8 dereferenceable(176) %12, i32 noundef 7201, ptr noundef @_ZN4llvm7AArch6413GPR32RegClassE, i32 noundef %19, i32 noundef %20)
  %22 = getelementptr inbounds nuw %"class.llvm::Register", ptr %10, i32 0, i32 0
  store i32 %21, ptr %22, align 4
  %23 = call noundef i32 @_ZNK4llvm8RegistercvjEv(ptr noundef nonnull align 4 dereferenceable(4) %10)
  store i32 %23, ptr %5, align 4
  br label %24

24:                                               ; preds = %18, %17
  %25 = load i32, ptr %5, align 4
  ret i32 %25
}

; Function Attrs: mustprogress nounwind uwtable
define internal noundef i32 @_ZN12_GLOBAL__N_115AArch64FastISel20fastEmit_ISD_UDIV_rrEN4llvm3MVTES2_jj(ptr noundef nonnull align 8 dereferenceable(192) %0, i16 %1, i16 %2, i32 noundef %3, i32 noundef %4) #0 align 2 {
  %6 = alloca i32, align 4
  %7 = alloca %"class.llvm::MVT", align 2
  %8 = alloca %"class.llvm::MVT", align 2
  %9 = alloca ptr, align 8
  %10 = alloca i32, align 4
  %11 = alloca i32, align 4
  %12 = alloca %"class.llvm::MVT", align 2
  %13 = alloca %"class.llvm::MVT", align 2
  %14 = getelementptr inbounds nuw %"class.llvm::MVT", ptr %7, i32 0, i32 0
  store i16 %1, ptr %14, align 2
  %15 = getelementptr inbounds nuw %"class.llvm::MVT", ptr %8, i32 0, i32 0
  store i16 %2, ptr %15, align 2
  store ptr %0, ptr %9, align 8
  store i32 %3, ptr %10, align 4
  store i32 %4, ptr %11, align 4
  %16 = load ptr, ptr %9, align 8
  %17 = getelementptr inbounds nuw %"class.llvm::MVT", ptr %7, i32 0, i32 0
  %18 = load i16, ptr %17, align 2
  %19 = zext i16 %18 to i32
  switch i32 %19, label %32 [
    i32 7, label %20
    i32 8, label %26
  ]

20:                                               ; preds = %5
  call void @llvm.memcpy.p0.p0.i64(ptr align 2 %12, ptr align 2 %8, i64 2, i1 false)
  %21 = load i32, ptr %10, align 4
  %22 = load i32, ptr %11, align 4
  %23 = getelementptr inbounds nuw %"class.llvm::MVT", ptr %12, i32 0, i32 0
  %24 = load i16, ptr %23, align 2
  %25 = call noundef i32 @_ZN12_GLOBAL__N_115AArch64FastISel28fastEmit_ISD_UDIV_MVT_i32_rrEN4llvm3MVTEjj(ptr noundef nonnull align 8 dereferenceable(192) %16, i16 %24, i32 noundef %21, i32 noundef %22)
  store i32 %25, ptr %6, align 4
  br label %33

26:                                               ; preds = %5
  call void @llvm.memcpy.p0.p0.i64(ptr align 2 %13, ptr align 2 %8, i64 2, i1 false)
  %27 = load i32, ptr %10, align 4
  %28 = load i32, ptr %11, align 4
  %29 = getelementptr inbounds nuw %"class.llvm::MVT", ptr %13, i32 0, i32 0
  %30 = load i16, ptr %29, align 2
  %31 = call noundef i32 @_ZN12_GLOBAL__N_115AArch64FastISel28fastEmit_ISD_UDIV_MVT_i64_rrEN4llvm3MVTEjj(ptr noundef nonnull align 8 dereferenceable(192) %16, i16 %30, i32 noundef %27, i32 noundef %28)
  store i32 %31, ptr %6, align 4
  br label %33

32:                                               ; preds = %5
  store i32 0, ptr %6, align 4
  br label %33

33:                                               ; preds = %32, %26, %20
  %34 = load i32, ptr %6, align 4
  ret i32 %34
}