; Function Attrs: mustprogress nounwind uwtable
define internal fastcc noundef i32 @_ZN12_GLOBAL__N_115AArch64FastISel20fastEmit_ISD_UDIV_rrEN4llvm3MVTES2_jj(ptr noundef nonnull align 8 dereferenceable(192) %0, i16 %1, i16 %2, i32 noundef %3, i32 noundef %4) unnamed_addr #0 align 2 {
  switch i16 %1, label %_ZN12_GLOBAL__N_115AArch64FastISel28fastEmit_ISD_UDIV_MVT_i32_rrEN4llvm3MVTEjj.exit [
    i16 7, label %6
    i16 8, label %9
  ]

6:                                                ; preds = %5
  %.not.i = icmp eq i16 %2, 7
  br i1 %.not.i, label %7, label %_ZN12_GLOBAL__N_115AArch64FastISel28fastEmit_ISD_UDIV_MVT_i32_rrEN4llvm3MVTEjj.exit

7:                                                ; preds = %6
  %8 = tail call i32 @_ZN4llvm8FastISel15fastEmitInst_rrEjPKNS_19TargetRegisterClassEjj(ptr noundef nonnull align 8 dereferenceable(192) %0, i32 noundef 7201, ptr noundef nonnull @_ZN4llvm7AArch6413GPR32RegClassE, i32 noundef %3, i32 noundef %4) #21
  br label %_ZN12_GLOBAL__N_115AArch64FastISel28fastEmit_ISD_UDIV_MVT_i32_rrEN4llvm3MVTEjj.exit

9:                                                ; preds = %5
  %.not.i9 = icmp eq i16 %2, 8
  br i1 %.not.i9, label %10, label %_ZN12_GLOBAL__N_115AArch64FastISel28fastEmit_ISD_UDIV_MVT_i32_rrEN4llvm3MVTEjj.exit

10:                                               ; preds = %9
  %11 = tail call i32 @_ZN4llvm8FastISel15fastEmitInst_rrEjPKNS_19TargetRegisterClassEjj(ptr noundef nonnull align 8 dereferenceable(192) %0, i32 noundef 7202, ptr noundef nonnull @_ZN4llvm7AArch6413GPR64RegClassE, i32 noundef %3, i32 noundef %4) #21
  br label %_ZN12_GLOBAL__N_115AArch64FastISel28fastEmit_ISD_UDIV_MVT_i32_rrEN4llvm3MVTEjj.exit

_ZN12_GLOBAL__N_115AArch64FastISel28fastEmit_ISD_UDIV_MVT_i32_rrEN4llvm3MVTEjj.exit: ; preds = %10, %9, %7, %6, %5
  %.0 = phi i32 [ 0, %5 ], [ %8, %7 ], [ 0, %6 ], [ %11, %10 ], [ 0, %9 ]
  ret i32 %.0
}